target datalayout = "e-m:e-p270:32:32-p271:32:32-p272:64:64-i64:64-i128:128-f80:128-n8:16:32:64-S128"
target triple = "x86_64-pc-linux-gnu"

%class.OffsetCompactHashtable = type { %class.CompactHashtable }
%class.CompactHashtable = type { %class.SimpleCompactHashtable }
%class.SimpleCompactHashtable = type { ptr, i32, i32, ptr, ptr }

@_ZL13_shared_table = internal global %class.OffsetCompactHashtable zeroinitializer, align 8
@_ZL21_dynamic_shared_table = internal global %class.OffsetCompactHashtable zeroinitializer, align 8

; Function Attrs: mustprogress nounwind uwtable
define linkonce_odr hidden void @_ZN22SimpleCompactHashtable5resetEv(ptr noundef nonnull align 8 dereferenceable(32) %0) #1 comdat align 2 {
  %2 = alloca ptr, align 8
  store ptr %0, ptr %2, align 8
  %3 = load ptr, ptr %2, align 8
  %4 = getelementptr inbounds %class.SimpleCompactHashtable, ptr %3, i32 0, i32 0
  store ptr null, ptr %4, align 8
  %5 = getelementptr inbounds %class.SimpleCompactHashtable, ptr %3, i32 0, i32 1
  store i32 0, ptr %5, align 8
  %6 = getelementptr inbounds %class.SimpleCompactHashtable, ptr %3, i32 0, i32 2
  store i32 0, ptr %6, align 4
  %7 = getelementptr inbounds %class.SimpleCompactHashtable, ptr %3, i32 0, i32 3
  store ptr null, ptr %7, align 8
  %8 = getelementptr inbounds %class.SimpleCompactHashtable, ptr %3, i32 0, i32 4
  store ptr null, ptr %8, align 8
  ret void
}

; Function Attrs: mustprogress nounwind uwtable
define linkonce_odr hidden noundef zeroext i1 @_ZN16SerializeClosure7writingEv(ptr noundef nonnull align 8 dereferenceable(8) %0) #1 comdat align 2 {
  %2 = alloca ptr, align 8
  store ptr %0, ptr %2, align 8
  %3 = load ptr, ptr %2, align 8
  %4 = load ptr, ptr %3, align 8
  %5 = getelementptr inbounds ptr, ptr %4, i64 0
  %6 = load ptr, ptr %5, align 8
  %7 = call noundef zeroext i1 %6(ptr noundef nonnull align 8 dereferenceable(8) %3)
  %8 = xor i1 %7, true
  ret i1 %8
}

; Function Attrs: mustprogress nounwind uwtable
define hidden void @_ZN11SymbolTable29serialize_shared_table_headerEP16SerializeClosureb(ptr noundef %0, i1 noundef zeroext %1) #1 align 2 {
  %3 = alloca ptr, align 8
  %4 = alloca i8, align 1
  %5 = alloca ptr, align 8
  store ptr %0, ptr %3, align 8
  %6 = zext i1 %1 to i8
  store i8 %6, ptr %4, align 1
  %7 = load i8, ptr %4, align 1
  %8 = trunc i8 %7 to i1
  br i1 %8, label %9, label %10

9:                                                ; preds = %2
  store ptr @_ZL13_shared_table, ptr %5, align 8
  br label %11

10:                                               ; preds = %2
  store ptr @_ZL21_dynamic_shared_table, ptr %5, align 8
  br label %11

11:                                               ; preds = %10, %9
  %12 = load ptr, ptr %5, align 8
  %13 = load ptr, ptr %3, align 8
  call void @_ZN22SimpleCompactHashtable16serialize_headerEP16SerializeClosure(ptr noundef nonnull align 8 dereferenceable(32) %12, ptr noundef %13)
  %14 = load ptr, ptr %3, align 8
  %15 = call noundef zeroext i1 @_ZN16SerializeClosure7writingEv(ptr noundef nonnull align 8 dereferenceable(8) %14)
  br i1 %15, label %16, label %18

16:                                               ; preds = %11
  %17 = load ptr, ptr %5, align 8
  call void @_ZN22SimpleCompactHashtable5resetEv(ptr noundef nonnull align 8 dereferenceable(32) %17)
  br label %18

18:                                               ; preds = %16, %11
  ret void
}