; Function Attrs: mustprogress nounwind uwtable
define hidden void @_ZN11SymbolTable29serialize_shared_table_headerEP16SerializeClosureb(ptr noundef %0, i1 noundef zeroext %1) local_unnamed_addr #0 align 2 {
  %_ZL13_shared_table._ZL21_dynamic_shared_table = select i1 %1, ptr @_ZL13_shared_table, ptr @_ZL21_dynamic_shared_table
  tail call void @_ZN22SimpleCompactHashtable16serialize_headerEP16SerializeClosure(ptr noundef nonnull align 8 dereferenceable(32) %_ZL13_shared_table._ZL21_dynamic_shared_table, ptr noundef %0) #18
  %3 = load ptr, ptr %0, align 8
  %4 = load ptr, ptr %3, align 8
  %5 = tail call noundef zeroext i1 %4(ptr noundef nonnull align 8 dereferenceable(8) %0) #18
  br i1 %5, label %7, label %6

6:                                                ; preds = %2
  tail call void @llvm.memset.p0.i64(ptr noundef nonnull align 8 dereferenceable(32) %_ZL13_shared_table._ZL21_dynamic_shared_table, i8 0, i64 32, i1 false)
  br label %7

7:                                                ; preds = %6, %2
  ret void
}